; Function Attrs: mustprogress nounwind uwtable
define dso_local void @_ZN4llvm20LostDebugLocObserver10checkpointEb(ptr noundef nonnull align 8 dereferenceable(252) %0, i1 noundef zeroext %1) local_unnamed_addr #0 align 2 {
  br i1 %1, label %3, label %4

3:                                                ; preds = %2
  tail call void @_ZN4llvm20LostDebugLocObserver21analyzeDebugLocationsEv(ptr noundef nonnull align 8 dereferenceable(252) %0)
  br label %4

4:                                                ; preds = %3, %2
  %5 = getelementptr inbounds nuw i8, ptr %0, i64 184
  %6 = getelementptr inbounds nuw i8, ptr %0, i64 192
  %7 = load ptr, ptr %6, align 8
  %8 = load ptr, ptr %5, align 8
  %9 = icmp eq ptr %7, %8
  br i1 %9, label %25, label %10

10:                                               ; preds = %4
  %11 = getelementptr inbounds nuw i8, ptr %0, i64 204
  %12 = load i32, ptr %11, align 4
  %13 = getelementptr inbounds nuw i8, ptr %0, i64 208
  %14 = load i32, ptr %13, align 8
  %15 = sub i32 %12, %14
  %16 = shl i32 %15, 2
  %17 = getelementptr inbounds nuw i8, ptr %0, i64 200
  %18 = load i32, ptr %17, align 8
  %19 = icmp ult i32 %16, %18
  %20 = icmp ugt i32 %18, 32
  %or.cond.i = and i1 %20, %19
  br i1 %or.cond.i, label %21, label %22

21:                                               ; preds = %10
  tail call void @_ZN4llvm19SmallPtrSetImplBase16shrink_and_clearEv(ptr noundef nonnull align 8 dereferenceable(28) %5) #9
  br label %_ZN4llvm19SmallPtrSetImplBase5clearEv.exit

22:                                               ; preds = %10
  %23 = zext i32 %18 to i64
  %24 = shl nuw nsw i64 %23, 3
  tail call void @llvm.memset.p0.i64(ptr align 8 %7, i8 -1, i64 %24, i1 false)
  br label %25

25:                                               ; preds = %22, %4
  %26 = getelementptr inbounds nuw i8, ptr %0, i64 204
  store i32 0, ptr %26, align 4
  %27 = getelementptr inbounds nuw i8, ptr %0, i64 208
  store i32 0, ptr %27, align 8
  br label %_ZN4llvm19SmallPtrSetImplBase5clearEv.exit

_ZN4llvm19SmallPtrSetImplBase5clearEv.exit:       ; preds = %21, %25
  %28 = getelementptr inbounds nuw i8, ptr %0, i64 88
  %29 = load ptr, ptr %28, align 8
  %30 = tail call noundef i64 @_ZNK4llvm15SmallVectorBaseIjE4sizeEv(ptr noundef nonnull align 8 dereferenceable(96) %28) #9
  %.not4.i.i.i = icmp eq i64 %30, 0
  br i1 %.not4.i.i.i, label %_ZN4llvm8SmallSetINS_8DebugLocELj4ESt4lessIS1_EE5clearEv.exit, label %.lr.ph.i.preheader.i.i

.lr.ph.i.preheader.i.i:                           ; preds = %_ZN4llvm19SmallPtrSetImplBase5clearEv.exit
  %31 = getelementptr inbounds %"class.llvm::DebugLoc", ptr %29, i64 %30
  br label %.lr.ph.i.i.i

.lr.ph.i.i.i:                                     ; preds = %_ZN4llvm8DebugLocD2Ev.exit.i.i.i, %.lr.ph.i.preheader.i.i
  %.05.i.i.i = phi ptr [ %32, %_ZN4llvm8DebugLocD2Ev.exit.i.i.i ], [ %31, %.lr.ph.i.preheader.i.i ]
  %32 = getelementptr inbounds i8, ptr %.05.i.i.i, i64 -8
  %33 = load ptr, ptr %32, align 8
  %.not.i.i.i.i.i.i.i = icmp eq ptr %33, null
  br i1 %.not.i.i.i.i.i.i.i, label %_ZN4llvm8DebugLocD2Ev.exit.i.i.i, label %34

34:                                               ; preds = %.lr.ph.i.i.i
  tail call void @_ZN4llvm16MetadataTracking7untrackEPvRNS_8MetadataE(ptr noundef nonnull align 8 dereferenceable(8) %32, ptr noundef nonnull align 4 dereferenceable(8) %33) #9
  br label %_ZN4llvm8DebugLocD2Ev.exit.i.i.i

_ZN4llvm8DebugLocD2Ev.exit.i.i.i:                 ; preds = %34, %.lr.ph.i.i.i
  %.not.i.i.i = icmp eq ptr %29, %32
  br i1 %.not.i.i.i, label %_ZN4llvm8SmallSetINS_8DebugLocELj4ESt4lessIS1_EE5clearEv.exit, label %.lr.ph.i.i.i, !llvm.loop !11

_ZN4llvm8SmallSetINS_8DebugLocELj4ESt4lessIS1_EE5clearEv.exit: ; preds = %_ZN4llvm8DebugLocD2Ev.exit.i.i.i, %_ZN4llvm19SmallPtrSetImplBase5clearEv.exit
  %35 = getelementptr inbounds nuw i8, ptr %0, i64 96
  store i32 0, ptr %35, align 8
  %36 = getelementptr inbounds nuw i8, ptr %0, i64 136
  %37 = getelementptr inbounds nuw i8, ptr %0, i64 152
  %38 = load ptr, ptr %37, align 8
  tail call void @_ZNSt8_Rb_treeIN4llvm8DebugLocES1_St9_IdentityIS1_ESt4lessIS1_ESaIS1_EE8_M_eraseEPSt13_Rb_tree_nodeIS1_E(ptr noundef nonnull align 8 dereferenceable(48) %36, ptr noundef %38)
  %39 = getelementptr inbounds nuw i8, ptr %0, i64 144
  store ptr null, ptr %37, align 8
  %40 = getelementptr inbounds nuw i8, ptr %0, i64 160
  store ptr %39, ptr %40, align 8
  %41 = getelementptr inbounds nuw i8, ptr %0, i64 168
  store ptr %39, ptr %41, align 8
  %42 = getelementptr inbounds nuw i8, ptr %0, i64 176
  store i64 0, ptr %42, align 8
  ret void
}